target datalayout = "e-m:e-p270:32:32-p271:32:32-p272:64:64-i64:64-i128:128-f80:128-n8:16:32:64-S128"
target triple = "x86_64-unknown-linux-gnu"

%struct.target_siginfo = type { i32, i32, i32, %union.anon.6 }
%union.anon.6 = type { %struct.anon.10, [80 x i8] }
%struct.anon.10 = type { i32, i32, i32, i64, i64 }
%struct.anon.9 = type { i32, i32, %union.target_sigval }
%union.target_sigval = type { i64 }
%struct.siginfo_t = type { i32, i32, i32, i32, %union.anon.13 }
%union.anon.13 = type { %struct.anon.17, [80 x i8] }
%struct.anon.17 = type { i32, i32, i32, i64, i64 }
%struct.anon.14 = type { i32, i32 }
%struct.anon.16 = type { i32, i32, %union.sigval }
%union.sigval = type { ptr }

; Function Attrs: nounwind sspstrong uwtable
define internal i64 @ldq_he_p(ptr noundef %ptr) #0 {
entry:
  %ptr.addr = alloca ptr, align 8
  %r = alloca i64, align 8
  store ptr %ptr, ptr %ptr.addr, align 8
  %0 = load ptr, ptr %ptr.addr, align 8
  call void @llvm.memcpy.p0.p0.i64(ptr align 8 %r, ptr align 1 %0, i64 8, i1 false)
  %1 = load i64, ptr %r, align 8
  ret i64 %1
}

; Function Attrs: nounwind sspstrong uwtable
define internal i32 @ldl_he_p(ptr noundef %ptr) #0 {
entry:
  %ptr.addr = alloca ptr, align 8
  %r = alloca i32, align 4
  store ptr %ptr, ptr %ptr.addr, align 8
  %0 = load ptr, ptr %ptr.addr, align 8
  call void @llvm.memcpy.p0.p0.i64(ptr align 4 %r, ptr align 1 %0, i64 4, i1 false)
  %1 = load i32, ptr %r, align 4
  ret i32 %1
}

; Function Attrs: nounwind sspstrong uwtable
define internal i64 @ldq_le_p(ptr noundef %ptr) #0 {
entry:
  %ptr.addr = alloca ptr, align 8
  store ptr %ptr, ptr %ptr.addr, align 8
  %0 = load ptr, ptr %ptr.addr, align 8
  %call = call i64 @ldq_he_p(ptr noundef %0)
  ret i64 %call
}

; Function Attrs: nounwind sspstrong uwtable
define internal i32 @ldl_le_p(ptr noundef %ptr) #0 {
entry:
  %ptr.addr = alloca ptr, align 8
  store ptr %ptr, ptr %ptr.addr, align 8
  %0 = load ptr, ptr %ptr.addr, align 8
  %call = call i32 @ldl_he_p(ptr noundef %0)
  ret i32 %call
}

; Function Attrs: nounwind sspstrong uwtable
define dso_local void @target_to_host_siginfo(ptr noundef %info, ptr noundef %tinfo) #0 {
entry:
  %info.addr = alloca ptr, align 8
  %tinfo.addr = alloca ptr, align 8
  %sival_ptr = alloca i64, align 8
  store ptr %info, ptr %info.addr, align 8
  store ptr %tinfo, ptr %tinfo.addr, align 8
  br label %do.body

do.body:                                          ; preds = %entry
  %0 = load ptr, ptr %tinfo.addr, align 8
  %si_signo = getelementptr inbounds %struct.target_siginfo, ptr %0, i32 0, i32 0
  %call = call i32 @ldl_le_p(ptr noundef %si_signo)
  %1 = load ptr, ptr %info.addr, align 8
  %si_signo1 = getelementptr inbounds %struct.siginfo_t, ptr %1, i32 0, i32 0
  store i32 %call, ptr %si_signo1, align 8
  br label %do.end

do.end:                                           ; preds = %do.body
  br label %do.body2

do.body2:                                         ; preds = %do.end
  %2 = load ptr, ptr %tinfo.addr, align 8
  %si_errno = getelementptr inbounds %struct.target_siginfo, ptr %2, i32 0, i32 1
  %call3 = call i32 @ldl_le_p(ptr noundef %si_errno)
  %3 = load ptr, ptr %info.addr, align 8
  %si_errno4 = getelementptr inbounds %struct.siginfo_t, ptr %3, i32 0, i32 1
  store i32 %call3, ptr %si_errno4, align 4
  br label %do.end5

do.end5:                                          ; preds = %do.body2
  br label %do.body6

do.body6:                                         ; preds = %do.end5
  %4 = load ptr, ptr %tinfo.addr, align 8
  %si_code = getelementptr inbounds %struct.target_siginfo, ptr %4, i32 0, i32 2
  %call7 = call i32 @ldl_le_p(ptr noundef %si_code)
  %5 = load ptr, ptr %info.addr, align 8
  %si_code8 = getelementptr inbounds %struct.siginfo_t, ptr %5, i32 0, i32 2
  store i32 %call7, ptr %si_code8, align 8
  br label %do.end9

do.end9:                                          ; preds = %do.body6
  br label %do.body10

do.body10:                                        ; preds = %do.end9
  %6 = load ptr, ptr %tinfo.addr, align 8
  %_sifields = getelementptr inbounds %struct.target_siginfo, ptr %6, i32 0, i32 3
  %_pid = getelementptr inbounds %struct.anon.9, ptr %_sifields, i32 0, i32 0
  %call11 = call i32 @ldl_le_p(ptr noundef %_pid)
  %7 = load ptr, ptr %info.addr, align 8
  %_sifields12 = getelementptr inbounds %struct.siginfo_t, ptr %7, i32 0, i32 4
  %si_pid = getelementptr inbounds %struct.anon.14, ptr %_sifields12, i32 0, i32 0
  store i32 %call11, ptr %si_pid, align 8
  br label %do.end13

do.end13:                                         ; preds = %do.body10
  br label %do.body14

do.body14:                                        ; preds = %do.end13
  %8 = load ptr, ptr %tinfo.addr, align 8
  %_sifields15 = getelementptr inbounds %struct.target_siginfo, ptr %8, i32 0, i32 3
  %_uid = getelementptr inbounds %struct.anon.9, ptr %_sifields15, i32 0, i32 1
  %call16 = call i32 @ldl_le_p(ptr noundef %_uid)
  %9 = load ptr, ptr %info.addr, align 8
  %_sifields17 = getelementptr inbounds %struct.siginfo_t, ptr %9, i32 0, i32 4
  %si_uid = getelementptr inbounds %struct.anon.14, ptr %_sifields17, i32 0, i32 1
  store i32 %call16, ptr %si_uid, align 4
  br label %do.end18

do.end18:                                         ; preds = %do.body14
  br label %do.body19

do.body19:                                        ; preds = %do.end18
  %10 = load ptr, ptr %tinfo.addr, align 8
  %_sifields20 = getelementptr inbounds %struct.target_siginfo, ptr %10, i32 0, i32 3
  %_sigval = getelementptr inbounds %struct.anon.9, ptr %_sifields20, i32 0, i32 2
  %call21 = call i64 @ldq_le_p(ptr noundef %_sigval)
  store i64 %call21, ptr %sival_ptr, align 8
  br label %do.end22

do.end22:                                         ; preds = %do.body19
  %11 = load i64, ptr %sival_ptr, align 8
  %12 = inttoptr i64 %11 to ptr
  %13 = load ptr, ptr %info.addr, align 8
  %_sifields23 = getelementptr inbounds %struct.siginfo_t, ptr %13, i32 0, i32 4
  %si_sigval = getelementptr inbounds %struct.anon.16, ptr %_sifields23, i32 0, i32 2
  store ptr %12, ptr %si_sigval, align 8
  ret void
}