; Function Attrs: mustprogress nofree norecurse nosync nounwind sspstrong willreturn memory(argmem: readwrite) uwtable
define dso_local void @target_to_host_siginfo(ptr noundef writeonly captures(none) initializes((0, 12), (16, 32)) %info, ptr noundef readonly captures(none) %tinfo) local_unnamed_addr #9 {
entry:
  %tinfo.val = load i32, ptr %tinfo, align 1
  store i32 %tinfo.val, ptr %info, align 8
  %si_errno = getelementptr inbounds nuw i8, ptr %tinfo, i64 4
  %si_errno.val = load i32, ptr %si_errno, align 1
  %si_errno4 = getelementptr inbounds nuw i8, ptr %info, i64 4
  store i32 %si_errno.val, ptr %si_errno4, align 4
  %si_code = getelementptr inbounds nuw i8, ptr %tinfo, i64 8
  %si_code.val = load i32, ptr %si_code, align 1
  %si_code8 = getelementptr inbounds nuw i8, ptr %info, i64 8
  store i32 %si_code.val, ptr %si_code8, align 8
  %_sifields = getelementptr inbounds nuw i8, ptr %tinfo, i64 16
  %_sifields.val = load i32, ptr %_sifields, align 1
  %_sifields12 = getelementptr inbounds nuw i8, ptr %info, i64 16
  store i32 %_sifields.val, ptr %_sifields12, align 8
  %_uid = getelementptr inbounds nuw i8, ptr %tinfo, i64 20
  %_uid.val = load i32, ptr %_uid, align 1
  %si_uid = getelementptr inbounds nuw i8, ptr %info, i64 20
  store i32 %_uid.val, ptr %si_uid, align 4
  %_sigval = getelementptr inbounds nuw i8, ptr %tinfo, i64 24
  %_sigval.val = load i64, ptr %_sigval, align 1
  %0 = inttoptr i64 %_sigval.val to ptr
  %si_sigval = getelementptr inbounds nuw i8, ptr %info, i64 24
  store ptr %0, ptr %si_sigval, align 8
  ret void
}